; Function Attrs: nounwind uwtable
define void @If_CutTraverseTest(ptr noundef readonly captures(none) %0, ptr noundef %1, ptr noundef readonly captures(none) %2) local_unnamed_addr #1 {
  %4 = tail call noalias dereferenceable_or_null(16) ptr @malloc(i64 noundef 16) #11
  %5 = getelementptr inbounds nuw i8, ptr %4, i64 4
  store i32 0, ptr %5, align 4
  store i32 1000, ptr %4, align 8
  %6 = tail call noalias dereferenceable_or_null(8000) ptr @malloc(i64 noundef 8000) #11
  %7 = getelementptr inbounds nuw i8, ptr %4, i64 8
  store ptr %6, ptr %7, align 8
  tail call void @If_CutTraverse(ptr noundef %0, ptr noundef %1, ptr noundef %2, ptr noundef nonnull %4)
  %8 = load ptr, ptr %7, align 8
  %.not.i = icmp eq ptr %8, null
  br i1 %.not.i, label %Vec_PtrFree.exit, label %9

9:                                                ; preds = %3
  tail call void @free(ptr noundef nonnull %8) #13
  br label %Vec_PtrFree.exit

Vec_PtrFree.exit:                                 ; preds = %3, %9
  tail call void @free(ptr noundef nonnull %4) #13
  ret void
}